c:\UnityBase\UB.exe 4.0.0.0 (2018-02-22 16:30:16)Host=WDFN34211327A User=D071860 CPU=4*9-6-19971:FFFBCBBF8373DAFEBF6F9C0000 OS=23.0=10.0.15063 Wow64=1 Freq=2437498Environment variables=ALLUSERSPROFILE=C:\ProgramData	ANSICON=121x32766 (121x26)	ANSICON_DEF=7	APPDATA=C:\Users\D071860\AppData\Roaming	CommonProgramFiles=C:\Program Files (x86)\Common Files	CommonProgramFiles(x86)=C:\Program Files (x86)\Common Files	CommonProgramW6432=C:\Program Files\Common Files	COMPUTERNAME=WDFN34211327A	ComSpec=C:\WINDOWS\system32\cmd.exe	ConEmuANSI=ON	ConEmuAnsiLog=	ConEmuArgs=	ConEmuArgs2=	ConEmuBackHWND=0x000B026E	ConEmuBaseDir=C:\Program Files\ConEmu\ConEmu	ConEmuBaseDirShort=C:\PROGRA~1\ConEmu\ConEmu	ConEmuBuild=180411	ConEmuCfgDir=	ConEmuConfig=	ConEmuDir=C:\Program Files\ConEmu	ConEmuDrawHWND=0x00180912	ConEmuDrive=C:	ConEmuHooks=Enabled	ConEmuHWND=0x001904C6	ConEmuPalette=<ConEmu>	ConEmuPID=1208	ConEmuPrompt0=$E[m$E[32m$E]9;8;"USERNAME"$E\@$E]9;8;"COMPUTERNAME"$E\$S	ConEmuPrompt1=$E[m$E[32m$E]9;8;"USERNAME"$E\@$E]9;8;"COMPUTERNAME"$E\$S$E[92m$P$E[90m	ConEmuPrompt2=$_$E[90m$G	ConEmuPrompt3=$E[m$S$E]9;12$E\	ConEmuServerPID=20132	ConEmuTask={Shells::cmd}	ConEmuWorkDir=C:\Users\D071860	ConEmuWorkDrive=C:	DEFLOGDIR=C:\ProgramData\McAfee\Endpoint Security\Logs	HOMEDRIVE=C:	homeloc=D_WDF	HOMEPATH=\Users\D071860	KUBECONFIG=C:\Practice\kubernetes\RUSLAN-KUBECONFIG	LOCALAPPDATA=C:\Users\D071860\AppData\Local	LOGONSERVER=\\DS2WDF0004	NUMBER_OF_PROCESSORS=4	OneDrive=C:\Users\D071860\OneDrive	OS=Windows_NT	Path=C:\Program Files\ConEmu\ConEmu\Scripts;C:\Program Files\ConEmu;C:\Program Files\ConEmu\ConEmu;C:\ProgramData\Oracle\Java\javapath;C:\Program Files\Docker\Docker\Resources\bin;C:\WINDOWS\system32;C:\WINDOWS;C:\WINDOWS\System32\Wbem;C:\WINDOWS\System32\WindowsPowerShell\v1.0\;C:\Program Files\Minikube;C:\Program Files\Kubernetes;C:\Program Files (x86)\Google\Cloud SDK\google-cloud-sdk\bin;C:\Program Files\PuTTY\;C:\Program Files\nodejs\;c:\UnityBase;C:\Users\D071860\AppData\Local\Microsoft\WindowsApps;C:\Users\D071860\AppData\Roaming\npm	PATHEXT=.COM;.EXE;.BAT;.CMD;.VBS;.VBE;.JS;.JSE;.WSF;.WSH;.MSC	PROCESSOR_ARCHITECTURE=x86	PROCESSOR_ARCHITEW6432=AMD64	PROCESSOR_IDENTIFIER=Intel64 Family 6 Model 78 Stepping 3, GenuineIntel	PROCESSOR_LEVEL=6	PROCESSOR_REVISION=4e03	ProgramData=C:\ProgramData	ProgramFiles=C:\Program Files (x86)	ProgramFiles(x86)=C:\Program Files (x86)	ProgramW6432=C:\Program Files	PROMPT=$E[m$E[32m$E]9;8;"USERNAME"$E\@$E]9;8;"COMPUTERNAME"$E\$S$E[92m$P$E[90m$_$E[90m$G$E[m$S$E]9;12$E\	PSModulePath=C:\Program Files (x86)\WindowsPowerShell\Modules;C:\WINDOWS\system32\WindowsPowerShell\v1.0\Modules;C:\Program Files (x86)\Google\Cloud SDK\google-cloud-sdk\platform\PowerShell	PUBLIC=C:\Users\Public	SESSIONNAME=Console	SNC_LIB=C:\Program Files (x86)\SAP\FrontEnd\SecureLogin\lib\sapcrypto.dll	SNC_LIB_64=C:\Program Files\SAP\FrontEnd\SecureLogin\lib\sapcrypto.dll	SSF_LIBRARY_PATH=C:\Program Files (x86)\SAP\FrontEnd\SecureLogin\lib\sapcrypto.dll	SSF_LIBRARY_PATH_64=C:\Program Files\SAP\FrontEnd\SecureLogin\lib\sapcrypto.dll	SystemDrive=C:	SystemRoot=C:\WINDOWS	TEMP=C:\Users\D071860\AppData\Local\Temp	TMP=C:\Users\D071860\AppData\Local\Temp	UATDATA=C:\WINDOWS\CCM\UATData\D9F8C395-CAB8-491d-B8AC-179A1FE1BE77	UB_HOME=c:\UnityBase	USERDNSDOMAIN=GLOBAL.CORP.SAP	USERDOMAIN=GLOBAL	USERDOMAIN_ROAMINGPROFILE=GLOBAL	USERNAME=D071860	USERPROFILE=C:\Users\D071860	windir=C:\WINDOWSTubLog 1.18.3488 FTS3 2018-04-16T11:39:5520180416 11395527  ! warn  WebSocket support are disabled because WSServer.host = '' in config
20180416 11395528  !  +    ubServer.TubServer(02EDE5E8).008863DB 
20180416 11395528  !  +    	Init app
20180416 11395528  ! srvr  		FTS is disabled
20180416 11395528  ! info  		Check blob store "avatars" folder "C:\ubProject\CityPortal\avatars\": folder exists
20180416 11395528  ! info  		Check blob store "attach" folder "C:\ubProject\CityPortal\docs\attach\": folder exists
20180416 11395528  !  -    	00.000.656
20180416 11395528  !  +    	Folder C:\ubProject\CityPortal\node_modules\@unitybase\ub\ modified
20180416 11395528  !  +    		ubCommonClasses.TubThreadSafeCache(02EDCB08).removeStartsWith
20180416 11395528  !  -    		00.000.005
20180416 11395528  !  -    	00.000.011
20180416 11395528  !  +    	Folder C:\ubProject\CityPortal\node_modules\@unitybase\uba\ modified
20180416 11395528  !  +    		ubCommonClasses.TubThreadSafeCache(02EDCB08).removeStartsWith
20180416 11395528  !  -    		00.000.000
20180416 11395528  !  -    	00.000.004
20180416 11395528  !  +    	Folder C:\ubProject\CityPortal\node_modules\@unitybase\ubs\ modified
20180416 11395528  !  +    		ubCommonClasses.TubThreadSafeCache(02EDCB08).removeStartsWith
20180416 11395528  !  -    		00.000.000
20180416 11395528  !  -    	00.000.005
20180416 11395528  !  +    	Folder C:\ubProject\CityPortal\node_modules\@unitybase\ubm\ modified
20180416 11395528  !  +    		ubCommonClasses.TubThreadSafeCache(02EDCB08).removeStartsWith
20180416 11395528  !  -    		00.000.000
20180416 11395528  !  -    	00.000.004
20180416 11395528  !  +    	Folder C:\ubProject\CityPortal\_public_only_\ modified
20180416 11395528  !  +    		ubCommonClasses.TubThreadSafeCache(02EDCB08).removeStartsWith
20180416 11395528  !  -    		00.000.000
20180416 11395528  !  -    	00.000.004
20180416 11395528  !  +    	Folder C:\ubProject\CityPortal\node_modules\@unitybase\adminui-reg\ modified
20180416 11395528  !  +    		ubCommonClasses.TubThreadSafeCache(02EDCB08).removeStartsWith
20180416 11395528  !  -    		00.000.000
20180416 11395528  !  -    	00.000.004
20180416 11395528  !  +    	Folder C:\ubProject\CityPortal\models\requests\ modified
20180416 11395528  !  +    		ubCommonClasses.TubThreadSafeCache(02EDCB08).removeStartsWith
20180416 11395528  !  -    		00.000.000
20180416 11395528  !  -    	00.000.004
20180416 11395528  !  +    	ubApp.TubApp(02E43EE0).init
20180416 11395528  ! srvr  		Mime converters are disabled
20180416 11395528  !  -    	00.000.002
20180416 11395528  ! srvr  	Enable zip compresison
20180416 11395528  ! srvr  	Send initialization request to http://localhost:888/init
20180416 11395529  "  +    InitializationRequest
20180416 11395529  "  +    	init
20180416 11395529  " srvr  		Start application intialization...
20180416 11395529  " info  		Loading domain...
20180416 11395529  " info  		Loading model "UB" from "C:\ubProject\CityPortal\node_modules\@unitybase\ub\"
20180416 11395529  " info  		Loading model "UBA" from "C:\ubProject\CityPortal\node_modules\@unitybase\uba\"
20180416 11395530  " info  		Loading model "UBS" from "C:\ubProject\CityPortal\node_modules\@unitybase\ubs\"
20180416 11395531  " info  		Loading model "UBM" from "C:\ubProject\CityPortal\node_modules\@unitybase\ubm\"
20180416 11395531  " info  		Loading model "adminui-reg" from "C:\ubProject\CityPortal\node_modules\@unitybase\adminui-reg\"
20180416 11395531  " info  		Loading model "RequestList" from "C:\ubProject\CityPortal\models\requests\"
20180416 11395531  "  +    		ubApp.TubDataStore(043D41B8).Init
20180416 11395531  "  +    			ubApp.TubApp(02E43EE0).DBExecute
20180416 11395531  "  +    				ubApp.TubApp(02E43EE0).TubApp.InternalDBExecute
20180416 11395531  "  +    					00856EC2 
20180416 11395531  "  -    					00.002.600
20180416 11395531  " SQL   					ubDBSQLite3ThreadSafe.TubSQLite3Statement(02EF6EB0) PRAGMA foreign_keys = ON
20180416 11395532  " SQL   					ubDBSQLite3ThreadSafe.TubSQLite3Statement(02EF68B0) SELECT A01.ID,A01.entity,A01.state,A01.attribute,A01.roleName,A01.actions  FROM uba_als A01  ORDER BY A01.entity ASC
20180416 11395532  "  -    				00.002.729
20180416 11395532  "  -    			00.002.759
20180416 11395532  " debug 			Query result for entity "uba_als" into data name "": row count=0
20180416 11395532  "  -    		00.002.780
20180416 11395532  " srvr  		The domain loaded successfully with 0 entities
20180416 11395532  " debug 		Create new JavaScript Engine for thread 68320
20180416 11395545  "  +    		008C234A 
20180416 11395545  "  +    			ubApp.TubDataStore(05865CC8).Init
20180416 11395545  "  +    				ubApp.TubApp(02E43EE0).DBExecute
20180416 11395545  "  +    					ubApp.TubApp(02E43EE0).TubApp.InternalDBExecute
20180416 11395545  " SQL   						ubDBSQLite3ThreadSafe.TubSQLite3Statement(02EF7210) SELECT A01.ID,A01.name,A01.sessionTimeout,A01.allowedAppMethods  FROM uba_role A01 
20180416 11395545  "  -    					00.000.045
20180416 11395545  "  -    				00.000.157
20180416 11395545  " debug 				Query result for entity "uba_role" into data name "": row count=9
20180416 11395545  "  -    			00.000.173
20180416 11395545  "  +    			ubApp.TubDataStore(05865D40).Init
20180416 11395545  "  +    				ubApp.TubApp(02E43EE0).DBExecute
20180416 11395545  "  +    					ubApp.TubApp(02E43EE0).TubApp.InternalDBExecute
20180416 11395545  " SQL   						ubDBSQLite3ThreadSafe.TubSQLite3Statement(02EF71B0) SELECT A01.ID,A01.entityMask,A01.methodMask,A01.ruleType,A01.ruleRole,A01.disabled,A01.code  FROM uba_els A01 
20180416 11395545  "  -    					00.000.045
20180416 11395545  "  -    				00.000.329
20180416 11395545  " debug 				Query result for entity "uba_els" into data name "": row count=88
20180416 11395545  "  -    			00.000.375
20180416 11395545  "  -    		00.003.005
20180416 11395545  " auth  		New session admin/152268949 created at 127.0.0.1/-432345549732052223 using Mozilla/5.0 (Windows; mORMot 1.18 TWinHTTP)
20180416 11395545  " auth  		New session anonymous/152268948 created at 127.0.0.1/-432345549732052223 using Mozilla/5.0 (Windows; mORMot 1.18 TWinHTTP)
20180416 11395545  "  +    		ubApp.TubDataStore(05865EA8).Init
20180416 11395545  "  +    			ubApp.TubApp(02E43EE0).DBExecute
20180416 11395545  "  +    				ubApp.TubApp(02E43EE0).TubApp.InternalDBExecute
20180416 11395545  " debug 					P1: String(34)	UBA.passwordPolicy.maxDurationDays
20180416 11395545  " SQL   					ubDBSQLite3ThreadSafe.TubSQLite3Statement(02EF72D0) select settingValue from ubs_settings where settingKey =?
20180416 11395545  "  -    				00.000.109
20180416 11395545  "  -    			00.000.207
20180416 11395545  " debug 			Query result for entity "ubs_settings" into data name "": row count=1
20180416 11395545  "  -    		00.000.235
20180416 11395545  "  +    		ubApp.TubDataStore(05865EA8).Init
20180416 11395545  "  +    			ubApp.TubApp(02E43EE0).DBExecute
20180416 11395545  "  +    				ubApp.TubApp(02E43EE0).TubApp.InternalDBExecute
20180416 11395545  " debug 					P1: String(37)	UBA.passwordPolicy.maxInvalidAttempts
20180416 11395545  " SQL   					ubDBSQLite3ThreadSafe.TubSQLite3Statement(02EF72D0) select settingValue from ubs_settings where settingKey =?
20180416 11395545  "  -    				00.000.010
20180416 11395545  "  -    			00.000.029
20180416 11395545  " debug 			Query result for entity "ubs_settings" into data name "": row count=1
20180416 11395545  "  -    		00.000.036
20180416 11395545  "  -    	00.262.965
20180416 11395545  "  -    00.262.980
20180416 11395545  ! srvr  	ubServer.TubServer(02EDE5E8) {"THttpApiServer(02E0A990)":{"Cloned":false,"RegisteredUrl":"http://+:888/","HTTPQueueLength":1000,"MaxBandwidth":-1,"MaxConnections":-1,"APIVersion":"HTTP API 2.0","ServerName":"UnityBase","ProcessName":""}} initialized
20180416 11395545  !  -    00.286.010
20180416 11395647  "  +    ubql
20180416 11395647  " http  	127.0.0.1 -> POST ubql
20180416 11395647  " http  	[{"fieldList":["model","report_code","name","template","code","ID","mi_modifyDate"],"entity":"ubs_report","method":"update","alsNeed":false,"execParams":{"template":"{\"store\":\"mdb\",\"fName\":\"xlsxExample.template\",\"origName\":\"xlsxExample.template\",\"relPath\":\"\",\"ct\":\"application/template\",\"size\":4622,\"md5\":\"52deb7352ea80d80c140b54f9426d571\",\"revision\":1,\"isDirty\":true}","ID":1847324396,"mi_modifyDate":"2018-04-16T13:39:33.000Z"}}]
20180416 11395647  " http  	<- 401
20180416 11395647  "  -    00.000.071
20180416 11395760  #  +    auth?AUTHTYPE=UB&userName=admin
20180416 11395760  # http  	127.0.0.1 -> POST auth?AUTHTYPE=UB&userName=admin
20180416 11395760  # debug 	Create new JavaScript Engine for thread 66620
20180416 11395812  # call  	endpoint auth
20180416 11395812  # http  	127.0.0.1 <- 200
20180416 11395812  #  -    00.232.018
20180416 11395812  $  +    auth?AUTHTYPE=UB&clientNonce=6ef7e1b07e667b1f6149b0929eafc70d5140676745b0fb037f4afdbf962d36d0&password=062ed8df58a69798bb4825f3840933885969076c1317adf2d7f51c56626cf669&userName=admin
20180416 11395812  $ http  	127.0.0.1 -> POST auth?AUTHTYPE=UB&clientNonce=6ef7e1b07e667b1f6149b0929eafc70d5140676745b0fb037f4afdbf962d36d0&password=062ed8df58a69798bb4825f3840933885969076c1317adf2d7f51c56626cf669&userName=admin
20180416 11395812  $ debug 	Create new JavaScript Engine for thread 65624
20180416 11395826  $ call  	endpoint auth
20180416 11395826  $  +    	ubApp.TubDataStore(0586B150).Init
20180416 11395826  $  +    		ubApp.TubApp(02E43EE0).DBExecute
20180416 11395826  $  +    			ubApp.TubApp(02E43EE0).TubApp.InternalDBExecute
20180416 11395826  $  +    				00856EC2 
20180416 11395826  $  -    				00.002.292
20180416 11395826  $ SQL   				ubDBSQLite3ThreadSafe.TubSQLite3Statement(02EF8050) PRAGMA foreign_keys = ON
20180416 11395826  $ debug 				P1: String(5)	admin
20180416 11395826  $ SQL   				ubDBSQLite3ThreadSafe.TubSQLite3Statement(02EF79F0) select id, name, uPasswordHashHexa, uData, isPending, trustedIP from UBA_USER where name=? and disabled=0
20180416 11395826  $  -    			00.002.340
20180416 11395826  $  -    		00.002.389
20180416 11395826  $ debug 		Query result for entity "uba_user" into data name "": row count=1
20180416 11395826  $  -    	00.002.414
20180416 11395826  $  +    	ubApp.TubDataStore(0586B150).Init
20180416 11395826  $  +    		ubApp.TubApp(02E43EE0).DBExecute
20180416 11395826  $  +    			ubApp.TubApp(02E43EE0).TubApp.InternalDBExecute
20180416 11395826  $ debug 				P1: Int64		10
20180416 11395826  $ SQL   				ubDBSQLite3ThreadSafe.TubSQLite3Statement(02EF8050) SELECT lastPasswordChangeDate FROM uba_user WHERE id=?
20180416 11395826  $  -    			00.000.018
20180416 11395826  $  -    		00.000.046
20180416 11395826  $ debug 		Query result for entity "uba_user" into data name "__expireDate": row count=1
20180416 11395826  $  -    	00.000.054
20180416 11395826  $  +    	ubApp.TubDataStore(06E36D70).Init
20180416 11395826  $  +    		ubApp.TubApp(02E43EE0).DBExecute
20180416 11395826  $  +    			ubApp.TubApp(02E43EE0).TubApp.InternalDBExecute
20180416 11395826  $ debug 				P1: Int64		10
20180416 11395826  $ SQL   				ubDBSQLite3ThreadSafe.TubSQLite3Statement(02EF8110) SELECT A01.roleID,A02.name,A02.description  FROM uba_userrole A01  INNER JOIN uba_role A02 ON A02.ID=A01.roleID  WHERE A01.userID=?
20180416 11395826  $  -    			00.000.039
20180416 11395826  $  -    		00.000.081
20180416 11395826  $ debug 		Query result for entity "uba_userrole" into data name "": row count=1
20180416 11395826  $  -    	00.000.089
20180416 11395826  $ auth  	New session admin/152268951 created at 127.0.0.1/-72057592427315148 using Mozilla/5.0 (Windows NT 10.0; Win64; x64) AppleWebKit/537.36 (KHTML, like Gecko) Chrome/65.0.3325.181 Safari/537.36
20180416 11395826  $  +    	ubMixinClasses.TubStorageMixin(02E942C0).MixinMethod
20180416 11395826  $ debug 		uba_user.select(TubStorageMixin)
20180416 11395826  $  +    		ubApp.TubDataStore(06E36D70).Init
20180416 11395826  $  +    			ubApp.TubApp(02E43EE0).DBExecute
20180416 11395826  $  +    				ubApp.TubApp(02E43EE0).TubApp.InternalDBExecute
20180416 11395826  $ debug 					P1: Int64		10
20180416 11395826  $ SQL   					ubDBSQLite3ThreadSafe.TubSQLite3Statement(02EF8230) SELECT A01.name  FROM uba_user A01  WHERE A01.ID=?
20180416 11395826  $  -    				00.000.088
20180416 11395826  $  -    			00.000.127
20180416 11395826  $ debug 			Query result for entity "uba_user" into data name "": row count=1
20180416 11395826  $  -    		00.000.135
20180416 11395826  $  -    	00.000.204
20180416 11395829  $  +    	ubMixinClasses.TubStorageMixin(02E942C0).MixinMethod
20180416 11395829  $ debug 		uba_advSecurity.select(TubStorageMixin)
20180416 11395829  $  +    		ubApp.TubDataStore(06E36D70).Init
20180416 11395829  $  +    			ubApp.TubApp(02E43EE0).DBExecute
20180416 11395829  $  +    				ubApp.TubApp(02E43EE0).TubApp.InternalDBExecute
20180416 11395829  $ debug 					P1: Int64		10
20180416 11395829  $ SQL   					ubDBSQLite3ThreadSafe.TubSQLite3Statement(02EF8290) SELECT A01.ID,A01.allowedIP,A01.refreshIP,A01.fp,A01.refreshFp,A01.keyMediaName,A01.refreshKeyMedia,A01.mi_modifyDate  FROM uba_advSecurity A01  WHERE A01.userID=?
20180416 11395829  $  -    				00.000.060
20180416 11395829  $  -    			00.000.136
20180416 11395829  $ debug 			Query result for entity "uba_advSecurity" into data name "": row count=0
20180416 11395829  $  -    		00.000.147
20180416 11395829  $  -    	00.000.258
20180416 11395829  $  +    	ubMixinClasses.TubStorageMixin(02E942C0).MixinMethod
20180416 11395829  $ debug 		uba_userrole.select(TubStorageMixin)
20180416 11395829  $  +    		ubApp.TubDataStore(06E36D70).Init
20180416 11395829  $  +    			ubApp.TubApp(02E43EE0).DBExecute
20180416 11395829  $  +    				ubApp.TubApp(02E43EE0).TubApp.InternalDBExecute
20180416 11395829  $ debug 					P1: Int64		10
20180416 11395829  $ SQL   					ubDBSQLite3ThreadSafe.TubSQLite3Statement(02EF82F0) SELECT A01.ID,A02.name,A01.roleID  FROM uba_userrole A01  INNER JOIN uba_role A02 ON A02.ID=A01.roleID  WHERE A01.userID=?
20180416 11395829  $  -    				00.000.056
20180416 11395829  $  -    			00.000.130
20180416 11395829  $ debug 			Query result for entity "uba_userrole" into data name "": row count=1
20180416 11395829  $  -    		00.000.139
20180416 11395829  $  -    	00.000.217
20180416 11395829  $  +    	ubMixinClasses.TubStorageMixin(02E942C0).MixinMethod
20180416 11395829  $ debug 		uba_audit.beforeinsert(TubStorageMixin)
20180416 11395829  $  -    	00.000.008
20180416 11395829  $  +    	ubMixinClasses.TubStorageMixin(02E942C0).MixinMethod
20180416 11395829  $ debug 		uba_audit.insert(TubStorageMixin)
20180416 11395829  $  +    		ubApp.TubDataStore(0586AF48).TubDataStore.ExecuteInsertFromList
20180416 11395829  $  +    			ubApp.TubDataStore(0586AF48).TubDataStore.ExecuteInsertFromSQL
20180416 11395829  $  +    				ubApp.TubApp(02E43EE0).DBExecute
20180416 11395829  $  +    					ubApp.TubApp(02E43EE0).TubApp.InternalDBExecute
20180416 11395829  $ debug 						P1: String(8)	uba_user
20180416 11395829  $ debug 						P2: Int64		10
20180416 11395829  $ debug 						P3: String(5)	LOGIN
20180416 11395829  $ debug 						P4: Int64		10
20180416 11395829  $ debug 						P5: DateTime	2018-04-16T11:39:58
20180416 11395829  $ debug 						P6: String(9)	127.0.0.1
20180416 11395829  $ debug 						P7: String(5)	admin
20180416 11395829  $ debug 						P8: String(0)	
20180416 11395829  $ debug 						P9: Int64		335793974542337
20180416 11395829  $ debug 						P10: String(556..)	Connection: keep-alive  Content-Length: 0  Accept: application/json, text/plain, */*  Accept-Encodin...
20180416 11395829  $ DB    						StartTransaction for connection "main"
20180416 11395829  $ SQL   						ubDBSQLite3ThreadSafe.TubSQLite3Statement(02EF83B0) INSERT INTO uba_audit (entity,entityinfo_id,actionType,actionUser,actionTime,remoteIP,targetUser,targetRole,ID,fromValue) VALUES (?,?,?,?,?,?,?,?,?,?)
20180416 11395829  $  -    					00.000.123
20180416 11395829  $  -    				00.000.125
20180416 11395829  $  -    			00.000.212
20180416 11395829  $  -    		00.000.224
20180416 11395829  $  -    	00.000.228
20180416 11395829  $  +    	ubMixinClasses.TubStorageMixin(02E942C0).MixinMethod
20180416 11395829  $ debug 		uba_audit.afterinsert(TubStorageMixin)
20180416 11395829  $  -    	00.000.073
20180416 11395829  $ DB    	Commit connection "main"
20180416 11395829  $ http  	127.0.0.1 <- 200
20180416 11395829  $  -    00.265.843
20180416 11395829  %  +    ubql
20180416 11395829  % http  	127.0.0.1 -> POST ubql
20180416 11395829  % http  	[{"fieldList":["model","report_code","name","template","code","ID","mi_modifyDate"],"entity":"ubs_report","method":"update","alsNeed":false,"execParams":{"template":"{\"store\":\"mdb\",\"fName\":\"xlsxExample.template\",\"origName\":\"xlsxExample.template\",\"relPath\":\"\",\"ct\":\"application/template\",\"size\":4622,\"md5\":\"52deb7352ea80d80c140b54f9426d571\",\"revision\":1,\"isDirty\":true}","ID":1847324396,"mi_modifyDate":"2018-04-16T13:39:33.000Z"}}]
20180416 11395829  % debug 	Create new JavaScript Engine for thread 58116
20180416 11395843  % auth  	admin/152268951
20180416 11395843  % call  	endpoint ubql
20180416 11395843  %  +    	ubMixinClasses.TubStorageMixin(02E942C0).MixinMethod
20180416 11395843  % debug 		ubs_report.beforeupdate(TubStorageMixin)
20180416 11395846  %  -    	00.048.599
20180416 11395848  %  +    	ubMixinClasses.TubStorageMixin(02E942C0).MixinMethod
20180416 11395848  % debug 		ubs_report.afterupdate(TubStorageMixin)
20180416 11395848  %  -    	00.010.907
20180416 11395848  %  +    	ubMixinClasses.TubAuditMixin(02E94F70).MixinMethod
20180416 11395848  % debug 		ubs_report.afterupdate(TubAuditMixin)
20180416 11395848  %  +    		ubApp.TubDataStore(06E3A4C0).TubDataStore.ExecuteInsertFromSQL
20180416 11395848  %  +    			ubApp.TubApp(02E43EE0).DBExecute
20180416 11395848  %  +    				ubApp.TubApp(02E43EE0).TubApp.InternalDBExecute
20180416 11395848  %  +    					00856EC2 
20180416 11395848  %  -    					00.002.868
20180416 11395848  % SQL   					ubDBSQLite3ThreadSafe.TubSQLite3Statement(02EF8D70) PRAGMA foreign_keys = ON
20180416 11395848  % debug 					P1: Int64		335793974575105
20180416 11395848  % debug 					P2: String(10)	ubs_report
20180416 11395848  % debug 					P3: Int64		1847324396
20180416 11395848  % debug 					P4: String(6)	UPDATE
20180416 11395848  % debug 					P5: Int64		10
20180416 11395848  % debug 					P6: DateTime	2018-04-16T11:39:58
20180416 11395848  % debug 					P7: String(9)	127.0.0.1
20180416 11395848  % debug 					P8: Int64		1847324396
20180416 11395848  % debug 					P9: String(1)	]
20180416 11395848  % debug 					P10: String(302..)	{"template":"{\"store\":\"mdb\",\"fName\":\"xlsxExample.template\",\"origName\":\"xlsxExample.templa...
20180416 11395848  % DB    					StartTransaction for connection "main"
20180416 11395848  % SQL   					ubDBSQLite3ThreadSafe.TubSQLite3Statement(02EF8710) INSERT INTO uba_auditTrail (ID,entity,entityinfo_id,actionType,actionUser,actionTime,remoteIP,parentEntityInfo_id,fromValue,toValue) VALUES (?,?,?,?,?,?,?,?,?,?)
20180416 11395848  %  -    				00.003.028
20180416 11395848  %  -    			00.003.031
20180416 11395848  %  -    		00.003.156
20180416 11395848  %  -    	00.003.211
20180416 11395848  % DB    	Commit connection "main" in 113us
20180416 11395848  % http  	127.0.0.1 <- 200
20180416 11395848  %  -    00.313.281
20180416 11395853  &  +    getDocument?entity=ubs_report&attribute=template&ID=1847324396&origName=xlsxExample.template&filename=ubs_report1847324396template&_dc=1523878798792
20180416 11395853  & http  	127.0.0.1 -> GET getDocument?entity=ubs_report&attribute=template&ID=1847324396&origName=xlsxExample.template&filename=ubs_report1847324396template&_dc=1523878798792
20180416 11395853  & debug 	Create new JavaScript Engine for thread 64740
20180416 11395853  '  +    getDocument?entity=ubs_report&attribute=code&ID=1847324396&origName=xlsxExample.js&filename=ubs_report1847324396code&_dc=1523878798794
20180416 11395853  ' http  	127.0.0.1 -> GET getDocument?entity=ubs_report&attribute=code&ID=1847324396&origName=xlsxExample.js&filename=ubs_report1847324396code&_dc=1523878798794
20180416 11395856  ' debug 	Create new JavaScript Engine for thread 65176
20180416 11395907  & auth  	admin/152268951
20180416 11395907  & call  	endpoint getDocument
20180416 11395910  ' auth  	admin/152268951
20180416 11395910  ' call  	endpoint getDocument
20180416 11395911  & http  	127.0.0.1 <- 200
20180416 11395911  &  -    00.326.271
20180416 11395914  ' http  	127.0.0.1 <- 200
20180416 11395914  '  -    00.372.365
20180416 12010052  (  +    setDocument?ID=1847324396&attribute=template&entity=ubs_report&filename=xlsxExample.template
20180416 12010052  ( http  	127.0.0.1 -> POST setDocument?ID=1847324396&attribute=template&entity=ubs_report&filename=xlsxExample.template
20180416 12010052  ( http  	!BIN(1550)
20180416 12010052  ( debug 	Create new JavaScript Engine for thread 67388
20180416 12010107  ( auth  	Session expire (timeout) admin/152268951/127.0.0.1
20180416 12010107  ( http  	<- 401
20180416 12010107  (  -    00.284.797
20180416 12010212  )  +    auth?AUTHTYPE=UB&userName=admin
20180416 12010212  ) http  	127.0.0.1 -> POST auth?AUTHTYPE=UB&userName=admin
20180416 12010212  ) debug 	Create new JavaScript Engine for thread 51580
20180416 12010230  ) call  	endpoint auth
20180416 12010230  ) http  	127.0.0.1 <- 200
20180416 12010230  )  -    00.292.940
20180416 12010230  "  +    auth?AUTHTYPE=UB&clientNonce=16e01a969aa486172b981c024f97f85db1317a4962b93c850e2f56355bd712dd&password=178b84633e745d379ef9efc4fba7faa051fc13692853814eb7b3f5a73d9009e6&userName=admin
20180416 12010230  " http  	127.0.0.1 -> POST auth?AUTHTYPE=UB&clientNonce=16e01a969aa486172b981c024f97f85db1317a4962b93c850e2f56355bd712dd&password=178b84633e745d379ef9efc4fba7faa051fc13692853814eb7b3f5a73d9009e6&userName=admin
20180416 12010230  " call  	endpoint auth
20180416 12010230  "  +    	ubApp.TubDataStore(0C0D31F0).Init
20180416 12010230  "  +    		ubApp.TubApp(02E43EE0).DBExecute
20180416 12010230  "  +    			ubApp.TubApp(02E43EE0).TubApp.InternalDBExecute
20180416 12010230  " debug 				P1: String(5)	admin
20180416 12010230  " SQL   				ubDBSQLite3ThreadSafe.TubSQLite3Statement(02EF9970) select id, name, uPasswordHashHexa, uData, isPending, trustedIP from UBA_USER where name=? and disabled=0
20180416 12010230  "  -    			00.000.072
20180416 12010230  "  -    		00.000.208
20180416 12010230  " debug 		Query result for entity "uba_user" into data name "": row count=1
20180416 12010230  "  -    	00.000.226
20180416 12010230  "  +    	ubApp.TubDataStore(0C0D31F0).Init
20180416 12010230  "  +    		ubApp.TubApp(02E43EE0).DBExecute
20180416 12010230  "  +    			ubApp.TubApp(02E43EE0).TubApp.InternalDBExecute
20180416 12010230  " debug 				P1: Int64		10
20180416 12010230  " SQL   				ubDBSQLite3ThreadSafe.TubSQLite3Statement(02EF99D0) SELECT lastPasswordChangeDate FROM uba_user WHERE id=?
20180416 12010230  "  -    			00.000.026
20180416 12010230  "  -    		00.000.054
20180416 12010230  " debug 		Query result for entity "uba_user" into data name "__expireDate": row count=1
20180416 12010230  "  -    	00.000.063
20180416 12010230  "  +    	ubApp.TubDataStore(0C0D3290).Init
20180416 12010230  "  +    		ubApp.TubApp(02E43EE0).DBExecute
20180416 12010230  "  +    			ubApp.TubApp(02E43EE0).TubApp.InternalDBExecute
20180416 12010230  " debug 				P1: Int64		10
20180416 12010230  " SQL   				ubDBSQLite3ThreadSafe.TubSQLite3Statement(02EF9AF0) SELECT A01.roleID,A02.name,A02.description  FROM uba_userrole A01  INNER JOIN uba_role A02 ON A02.ID=A01.roleID  WHERE A01.userID=?
20180416 12010230  "  -    			00.000.061
20180416 12010230  "  -    		00.000.107
20180416 12010230  " debug 		Query result for entity "uba_userrole" into data name "": row count=1
20180416 12010230  "  -    	00.000.116
20180416 12010230  " auth  	New session admin/152268950 created at 127.0.0.1/-72057583837379952 using Mozilla/5.0 (Windows NT 10.0; Win64; x64) AppleWebKit/537.36 (KHTML, like Gecko) Chrome/65.0.3325.181 Safari/537.36
20180416 12010230  "  +    	ubMixinClasses.TubStorageMixin(02E942C0).MixinMethod
20180416 12010230  " debug 		uba_user.select(TubStorageMixin)
20180416 12010230  "  +    		ubApp.TubDataStore(0C0D3290).Init
20180416 12010230  "  +    			ubApp.TubApp(02E43EE0).DBExecute
20180416 12010230  "  +    				ubApp.TubApp(02E43EE0).TubApp.InternalDBExecute
20180416 12010230  " debug 					P1: Int64		10
20180416 12010230  " SQL   					ubDBSQLite3ThreadSafe.TubSQLite3Statement(02EF9C10) SELECT A01.name  FROM uba_user A01  WHERE A01.ID=?
20180416 12010230  "  -    				00.000.103
20180416 12010230  "  -    			00.000.141
20180416 12010230  " debug 			Query result for entity "uba_user" into data name "": row count=1
20180416 12010230  "  -    		00.000.152
20180416 12010230  "  -    	00.000.229
20180416 12010233  "  +    	ubMixinClasses.TubStorageMixin(02E942C0).MixinMethod
20180416 12010233  " debug 		uba_advSecurity.select(TubStorageMixin)
20180416 12010233  "  +    		ubApp.TubDataStore(0C0D3290).Init
20180416 12010233  "  +    			ubApp.TubApp(02E43EE0).DBExecute
20180416 12010233  "  +    				ubApp.TubApp(02E43EE0).TubApp.InternalDBExecute
20180416 12010233  " debug 					P1: Int64		10
20180416 12010233  " SQL   					ubDBSQLite3ThreadSafe.TubSQLite3Statement(02EF9C70) SELECT A01.ID,A01.allowedIP,A01.refreshIP,A01.fp,A01.refreshFp,A01.keyMediaName,A01.refreshKeyMedia,A01.mi_modifyDate  FROM uba_advSecurity A01  WHERE A01.userID=?
20180416 12010233  "  -    				00.000.076
20180416 12010233  "  -    			00.000.177
20180416 12010233  " debug 			Query result for entity "uba_advSecurity" into data name "": row count=0
20180416 12010233  "  -    		00.000.193
20180416 12010233  "  -    	00.000.402
20180416 12010233  "  +    	ubMixinClasses.TubStorageMixin(02E942C0).MixinMethod
20180416 12010233  " debug 		uba_userrole.select(TubStorageMixin)
20180416 12010233  "  +    		ubApp.TubDataStore(0C0D3290).Init
20180416 12010233  "  +    			ubApp.TubApp(02E43EE0).DBExecute
20180416 12010233  "  +    				ubApp.TubApp(02E43EE0).TubApp.InternalDBExecute
20180416 12010233  " debug 					P1: Int64		10
20180416 12010233  " SQL   					ubDBSQLite3ThreadSafe.TubSQLite3Statement(02EF9D30) SELECT A01.ID,A02.name,A01.roleID  FROM uba_userrole A01  INNER JOIN uba_role A02 ON A02.ID=A01.roleID  WHERE A01.userID=?
20180416 12010233  "  -    				00.000.066
20180416 12010233  "  -    			00.000.153
20180416 12010233  " debug 			Query result for entity "uba_userrole" into data name "": row count=1
20180416 12010233  "  -    		00.000.164
20180416 12010233  "  -    	00.000.269
20180416 12010233  "  +    	ubMixinClasses.TubStorageMixin(02E942C0).MixinMethod
20180416 12010233  " debug 		uba_audit.beforeinsert(TubStorageMixin)
20180416 12010233  "  -    	00.000.010
20180416 12010233  "  +    	ubMixinClasses.TubStorageMixin(02E942C0).MixinMethod
20180416 12010233  " debug 		uba_audit.insert(TubStorageMixin)
20180416 12010233  "  +    		ubApp.TubDataStore(05865B10).TubDataStore.ExecuteInsertFromList
20180416 12010233  "  +    			ubApp.TubDataStore(05865B10).TubDataStore.ExecuteInsertFromSQL
20180416 12010233  "  +    				ubApp.TubApp(02E43EE0).DBExecute
20180416 12010233  "  +    					ubApp.TubApp(02E43EE0).TubApp.InternalDBExecute
20180416 12010233  " debug 						P1: String(8)	uba_user
20180416 12010233  " debug 						P2: Int64		10
20180416 12010233  " debug 						P3: String(5)	LOGIN
20180416 12010233  " debug 						P4: Int64		10
20180416 12010233  " debug 						P5: DateTime	2018-04-16T12:01:02
20180416 12010233  " debug 						P6: String(9)	127.0.0.1
20180416 12010233  " debug 						P7: String(5)	admin
20180416 12010233  " debug 						P8: String(0)	
20180416 12010233  " debug 						P9: Int64		335794136350721
20180416 12010233  " debug 						P10: String(556..)	Connection: keep-alive  Content-Length: 0  Accept: application/json, text/plain, */*  Accept-Encodin...
20180416 12010233  " DB    						StartTransaction for connection "main"
20180416 12010233  " SQL   						ubDBSQLite3ThreadSafe.TubSQLite3Statement(02EF9DF0) INSERT INTO uba_audit (entity,entityinfo_id,actionType,actionUser,actionTime,remoteIP,targetUser,targetRole,ID,fromValue) VALUES (?,?,?,?,?,?,?,?,?,?)
20180416 12010233  "  -    					00.000.210
20180416 12010233  "  -    				00.000.213
20180416 12010233  "  -    			00.000.365
20180416 12010233  "  -    		00.000.388
20180416 12010233  "  -    	00.000.396
20180416 12010233  "  +    	ubMixinClasses.TubStorageMixin(02E942C0).MixinMethod
20180416 12010233  " debug 		uba_audit.afterinsert(TubStorageMixin)
20180416 12010233  "  -    	00.000.006
20180416 12010233  " DB    	Commit connection "main"
20180416 12010233  " http  	127.0.0.1 <- 200
20180416 12010233  "  -    00.049.339
20180416 12010233  #  +    setDocument?ID=1847324396&attribute=template&entity=ubs_report&filename=xlsxExample.template
20180416 12010233  # http  	127.0.0.1 -> POST setDocument?ID=1847324396&attribute=template&entity=ubs_report&filename=xlsxExample.template
20180416 12010233  # http  	!BIN(1550)
20180416 12010233  # auth  	admin/152268950
20180416 12010233  # call  	endpoint setDocument
20180416 12010234  # http  	127.0.0.1 <- 200
20180416 12010234  #  -    00.011.130
20180416 12010234  $  +    ubql
20180416 12010234  $ http  	127.0.0.1 -> POST ubql
20180416 12010234  $ http  	[{"fieldList":["model","report_code","name","template","code","ID","mi_modifyDate"],"entity":"ubs_report","method":"update","alsNeed":false,"execParams":{"template":"{\"store\":\"mdb\",\"fName\":\"xlsxExample.template\",\"origName\":\"xlsxExample.template\",\"relPath\":\"\",\"ct\":\"application/template\",\"size\":1550,\"md5\":\"a8162947aa131a27fdc7a28a6f5a8e3d\",\"revision\":1,\"isDirty\":true}","ID":1847324396,"mi_modifyDate":"2018-04-16T13:39:58.000Z"}}]
20180416 12010234  $ auth  	admin/152268950
20180416 12010234  $ call  	endpoint ubql
20180416 12010234  $  +    	ubMixinClasses.TubStorageMixin(02E942C0).MixinMethod
20180416 12010234  $ debug 		ubs_report.beforeupdate(TubStorageMixin)
20180416 12010236  $  -    	00.024.438
20180416 12010238  $  +    	ubMixinClasses.TubStorageMixin(02E942C0).MixinMethod
20180416 12010238  $ debug 		ubs_report.afterupdate(TubStorageMixin)
20180416 12010239  $  -    	00.012.535
20180416 12010239  $  +    	ubMixinClasses.TubAuditMixin(02E94F70).MixinMethod
20180416 12010239  $ debug 		ubs_report.afterupdate(TubAuditMixin)
20180416 12010239  $  +    		ubApp.TubDataStore(0C0D3B78).TubDataStore.ExecuteInsertFromSQL
20180416 12010239  $  +    			ubApp.TubApp(02E43EE0).DBExecute
20180416 12010239  $  +    				ubApp.TubApp(02E43EE0).TubApp.InternalDBExecute
20180416 12010239  $ debug 					P1: Int64		335794136350722
20180416 12010239  $ debug 					P2: String(10)	ubs_report
20180416 12010239  $ debug 					P3: Int64		1847324396
20180416 12010239  $ debug 					P4: String(6)	UPDATE
20180416 12010239  $ debug 					P5: Int64		10
20180416 12010239  $ debug 					P6: DateTime	2018-04-16T12:01:02
20180416 12010239  $ debug 					P7: String(9)	127.0.0.1
20180416 12010239  $ debug 					P8: Int64		1847324396
20180416 12010239  $ debug 					P9: String(1)	]
20180416 12010239  $ debug 					P10: String(302..)	{"template":"{\"store\":\"mdb\",\"fName\":\"xlsxExample.template\",\"origName\":\"xlsxExample.templa...
20180416 12010239  $ DB    					StartTransaction for connection "main"
20180416 12010239  $ SQL   					ubDBSQLite3ThreadSafe.TubSQLite3Statement(02EF9BB0) INSERT INTO uba_auditTrail (ID,entity,entityinfo_id,actionType,actionUser,actionTime,remoteIP,parentEntityInfo_id,fromValue,toValue) VALUES (?,?,?,?,?,?,?,?,?,?)
20180416 12010239  $  -    				00.000.271
20180416 12010239  $  -    			00.000.273
20180416 12010239  $  -    		00.000.410
20180416 12010239  $  -    	00.000.462
20180416 12010239  $ DB    	Commit connection "main" in 93us
20180416 12010239  $ http  	127.0.0.1 <- 200
20180416 12010239  $  -    00.072.516
20180416 12010244  %  +    getDocument?entity=ubs_report&attribute=template&ID=1847324396&origName=xlsxExample.template&filename=ubs_report1847324396template&_dc=1523880062642
20180416 12010244  % http  	127.0.0.1 -> GET getDocument?entity=ubs_report&attribute=template&ID=1847324396&origName=xlsxExample.template&filename=ubs_report1847324396template&_dc=1523880062642
20180416 12010244  % auth  	admin/152268950
20180416 12010244  % call  	endpoint getDocument
20180416 12010244  % http  	127.0.0.1 <- 200
20180416 12010244  %  -    00.003.289
20180416 12010244  &  +    getDocument?entity=ubs_report&attribute=code&ID=1847324396&origName=xlsxExample.js&filename=ubs_report1847324396code&_dc=1523880062645
20180416 12010244  & http  	127.0.0.1 -> GET getDocument?entity=ubs_report&attribute=code&ID=1847324396&origName=xlsxExample.js&filename=ubs_report1847324396code&_dc=1523880062645
20180416 12010244  & auth  	admin/152268950
20180416 12010244  & call  	endpoint getDocument
20180416 12010244  & http  	127.0.0.1 <- 200
20180416 12010244  &  -    00.004.120
20180416 12010355  '  +    ubql
20180416 12010355  ' http  	127.0.0.1 -> POST ubql
20180416 12010355  ' http  	[{"entity":"ubs_report","method":"select","fieldList":["ID","report_code","name","template","code","model"],"version":"-1"}]
20180416 12010355  ' auth  	admin/152268950
20180416 12010355  ' call  	endpoint ubql
20180416 12010355  ' http  	127.0.0.1 <- 200
20180416 12010355  '  -    00.001.083
20180416 12010355  (  +    getDocument?entity=ubs_report&attribute=template&ID=1847324396&origName=xlsxExample.template&dtrPrm=1523880063890
20180416 12010355  ( http  	127.0.0.1 -> GET getDocument?entity=ubs_report&attribute=template&ID=1847324396&origName=xlsxExample.template&dtrPrm=1523880063890
20180416 12010355  ( auth  	admin/152268950
20180416 12010355  ( call  	endpoint getDocument
20180416 12010355  )  +    getDocument?entity=ubs_report&attribute=code&ID=1847324396&origName=xlsxExample.js&dtrPrm=1523880063890
20180416 12010355  ) http  	127.0.0.1 -> GET getDocument?entity=ubs_report&attribute=code&ID=1847324396&origName=xlsxExample.js&dtrPrm=1523880063890
20180416 12010355  ) auth  	admin/152268950
20180416 12010355  ) call  	endpoint getDocument
20180416 12010401  ( http  	127.0.0.1 <- 200
20180416 12010401  (  -    00.123.567
20180416 12010401  ) http  	127.0.0.1 <- 200
20180416 12010401  )  -    00.132.675
20180416 12010406  "  +    ubql
20180416 12010406  " http  	127.0.0.1 -> POST ubql
20180416 12010406  " http  	[{"entity":"req_reqList","method":"select","fieldList":["reqDate","applicantInfo","reqText","answer"],"whereList":{"c1":{"expression":"[department]","condition":"equal","values":{"c1":335784175468545}},"c2":{"expression":"[reqDate]","condition":"moreEqual","values":{"c2":"2018-03-31T22:00:00.000Z"}},"c3":{"expression":"[reqDate]","condition":"less","values":{"c3":"2018-04-30T22:00:00.000Z"}}}}]
20180416 12010406  " auth  	admin/152268950
20180416 12010406  " call  	endpoint ubql
20180416 12010406  "  +    	ubMixinClasses.TubDataHistoryMixin(02E94CD0).MixinMethod
20180416 12010406  " debug 		req_reqList.select(TubDataHistoryMixin)
20180416 12010406  "  -    	00.000.013
20180416 12010406  "  +    	ubMixinClasses.TubRLSMixin(02E94E20).MixinMethod
20180416 12010406  " debug 		req_reqList.select(TubRLSMixin)
20180416 12010406  " debug 		Prepare RLS expression for req_reqList
20180416 12010406  "  -    	00.000.367
20180416 12010406  "  +    	ubMixinClasses.TubStorageMixin(02E942C0).MixinMethod
20180416 12010406  " debug 		req_reqList.select(TubStorageMixin)
20180416 12010406  "  +    		ubApp.TubDataStore(058583F0).Init
20180416 12010406  "  +    			ubApp.TubApp(02E43EE0).DBExecute
20180416 12010406  "  +    				ubApp.TubApp(02E43EE0).TubApp.InternalDBExecute
20180416 12010406  " debug 					P1: Int64		335784175468545
20180416 12010406  " debug 					P2: DateTime	2018-03-31T22:00:00
20180416 12010406  " debug 					P3: DateTime	2018-04-30T22:00:00
20180416 12010406  " debug 					P4: DateTime	2018-04-16T12:01:04
20180416 12010406  " debug 					P5: Int64		10
20180416 12010406  " SQL   					ubDBSQLite3ThreadSafe.TubSQLite3Statement(02EF9EB0) SELECT A01.reqDate,A01.applicantInfo,A01.reqText,A01.answer  FROM req_reqList A01  INNER JOIN req_depart A02 ON A02.ID=A01.department  WHERE A01.department=? AND A01.reqDate>=? AND A01.reqDate<? AND (? BETWEEN A01.mi_dateFrom AND A01.mi_dateTo) AND (( A01.mi_owner = ? ) OR A02.roleInSystem in (0,3,1))
20180416 12010406  "  -    				00.000.212
20180416 12010406  "  -    			00.000.538
20180416 12010406  " debug 			Query result for entity "req_reqList" into data name "": row count=2
20180416 12010406  "  -    		00.000.668
20180416 12010406  "  -    	00.000.953
20180416 12010406  "  +    	ubMixinClasses.TubSoftLockMixin(02E950C0).MixinMethod
20180416 12010406  " debug 		req_reqList.select(TubSoftLockMixin)
20180416 12010406  "  -    	00.000.025
20180416 12010406  " http  	127.0.0.1 <- 200
20180416 12010406  "  -    00.002.096
20180416 12010416  #  +    clientRequire/tinymce//skins/lightgray/content.min.css
20180416 12010416  # http  	127.0.0.1 -> GET clientRequire/tinymce//skins/lightgray/content.min.css
20180416 12010416  # call  	endpoint clientRequire
20180416 12010416  # info  	Call clientRequire 
20180416 12010422  # http  	127.0.0.1 <- 200
20180416 12010422  #  -    00.095.467
20180416 12010428  $  +    models/adminui-pub/css/print-report.css
20180416 12010428  $ http  	127.0.0.1 -> GET models/adminui-pub/css/print-report.css
20180416 12010428  $ call  	endpoint models
20180416 12010428  $ http  	127.0.0.1 <- 200
20180416 12010428  $  -    00.001.522
20180416 12010428  %  +    models/adminui-pub/css/print-portrait.css
20180416 12010428  % http  	127.0.0.1 -> GET models/adminui-pub/css/print-portrait.css
20180416 12010428  % call  	endpoint models
20180416 12010428  % http  	127.0.0.1 <- 200
20180416 12010428  %  -    00.001.640
20180416 12012702  &  +    setDocument?ID=1847324396&attribute=template&entity=ubs_report&filename=xlsxExample.template
20180416 12012702  & http  	127.0.0.1 -> POST setDocument?ID=1847324396&attribute=template&entity=ubs_report&filename=xlsxExample.template
20180416 12012702  & http  	!BIN(1486)
20180416 12012702  & auth  	admin/152268950
20180416 12012702  & call  	endpoint setDocument
20180416 12012702  & http  	127.0.0.1 <- 200
20180416 12012702  &  -    00.010.398
20180416 12012703  '  +    ubql
20180416 12012703  ' http  	127.0.0.1 -> POST ubql
20180416 12012703  ' http  	[{"fieldList":["model","report_code","name","template","code","ID","mi_modifyDate"],"entity":"ubs_report","method":"update","alsNeed":false,"execParams":{"template":"{\"store\":\"mdb\",\"fName\":\"xlsxExample.template\",\"origName\":\"xlsxExample.template\",\"relPath\":\"\",\"ct\":\"application/template\",\"size\":1486,\"md5\":\"8e081a8a1ea534ae992b13d57c6bbd63\",\"revision\":1,\"isDirty\":true}","ID":1847324396,"mi_modifyDate":"2018-04-16T14:01:02.000Z"}}]
20180416 12012703  ' auth  	admin/152268950
20180416 12012703  ' call  	endpoint ubql
20180416 12012703  '  +    	ubMixinClasses.TubStorageMixin(02E942C0).MixinMethod
20180416 12012703  ' debug 		ubs_report.beforeupdate(TubStorageMixin)
20180416 12012703  ' EXC   		EMetabaseException {"errorCode":25,"Message":"Record modified by another user"} at 0094C650 
20180416 12012703  '  -    	00.002.063
20180416 12012703  ' ERROR 	POST ubql ERROR=500 (Record modified by another user)
20180416 12012703  '  -    00.002.909
20180416 12012824  (  +    ubql
20180416 12012824  ( http  	127.0.0.1 -> POST ubql
20180416 12012824  ( http  	[{"fieldList":["model","report_code","name","template","code","ID","mi_modifyDate"],"entity":"ubs_report","method":"update","alsNeed":false,"execParams":{"template":"{\"store\":\"mdb\",\"fName\":\"xlsxExample.template\",\"origName\":\"xlsxExample.template\",\"relPath\":\"\",\"ct\":\"application/template\",\"size\":1486,\"md5\":\"8e081a8a1ea534ae992b13d57c6bbd63\",\"revision\":1,\"isDirty\":true}","ID":1847324396,"mi_modifyDate":"2018-04-16T14:01:02.000Z"}}]
20180416 12012824  ( auth  	admin/152268950
20180416 12012824  ( call  	endpoint ubql
20180416 12012824  (  +    	ubMixinClasses.TubStorageMixin(02E942C0).MixinMethod
20180416 12012824  ( debug 		ubs_report.beforeupdate(TubStorageMixin)
20180416 12012824  (  -    	00.001.294
20180416 12012825  (  +    	ubMixinClasses.TubStorageMixin(02E942C0).MixinMethod
20180416 12012825  ( debug 		ubs_report.afterupdate(TubStorageMixin)
20180416 12012825  (  -    	00.011.908
20180416 12012825  (  +    	ubMixinClasses.TubAuditMixin(02E94F70).MixinMethod
20180416 12012825  ( debug 		ubs_report.afterupdate(TubAuditMixin)
20180416 12012825  (  +    		ubApp.TubDataStore(05858198).TubDataStore.ExecuteInsertFromSQL
20180416 12012825  (  +    			ubApp.TubApp(02E43EE0).DBExecute
20180416 12012825  (  +    				ubApp.TubApp(02E43EE0).TubApp.InternalDBExecute
20180416 12012825  (  +    					00856EC2 
20180416 12012827  (  -    					00.009.187
20180416 12012827  ( SQL   					ubDBSQLite3ThreadSafe.TubSQLite3Statement(02EFA5D0) PRAGMA foreign_keys = ON
20180416 12012827  ( debug 					P1: Int64		335794139660289
20180416 12012827  ( debug 					P2: String(10)	ubs_report
20180416 12012827  ( debug 					P3: Int64		1847324396
20180416 12012827  ( debug 					P4: String(6)	UPDATE
20180416 12012827  ( debug 					P5: Int64		10
20180416 12012827  ( debug 					P6: DateTime	2018-04-16T12:01:28
20180416 12012827  ( debug 					P7: String(9)	127.0.0.1
20180416 12012827  ( debug 					P8: Int64		1847324396
20180416 12012827  ( debug 					P9: String(1)	]
20180416 12012827  ( debug 					P10: String(302..)	{"template":"{\"store\":\"mdb\",\"fName\":\"xlsxExample.template\",\"origName\":\"xlsxExample.templa...
20180416 12012827  ( DB    					StartTransaction for connection "main"
20180416 12012827  ( SQL   					ubDBSQLite3ThreadSafe.TubSQLite3Statement(02EFA030) INSERT INTO uba_auditTrail (ID,entity,entityinfo_id,actionType,actionUser,actionTime,remoteIP,parentEntityInfo_id,fromValue,toValue) VALUES (?,?,?,?,?,?,?,?,?,?)
20180416 12012827  (  -    				00.009.331
20180416 12012827  (  -    			00.009.334
20180416 12012827  (  -    		00.009.447
20180416 12012827  (  -    	00.009.498
20180416 12012827  ( DB    	Commit connection "main" in 82us
20180416 12012827  ( http  	127.0.0.1 <- 200
20180416 12012827  (  -    00.051.968
20180416 12012831  )  +    getDocument?entity=ubs_report&attribute=template&ID=1847324396&origName=xlsxExample.template&filename=ubs_report1847324396template&_dc=1523880088441
20180416 12012831  ) http  	127.0.0.1 -> GET getDocument?entity=ubs_report&attribute=template&ID=1847324396&origName=xlsxExample.template&filename=ubs_report1847324396template&_dc=1523880088441
20180416 12012831  ) auth  	admin/152268950
20180416 12012831  ) call  	endpoint getDocument
20180416 12012831  "  +    getDocument?entity=ubs_report&attribute=code&ID=1847324396&origName=xlsxExample.js&filename=ubs_report1847324396code&_dc=1523880088442
20180416 12012831  " http  	127.0.0.1 -> GET getDocument?entity=ubs_report&attribute=code&ID=1847324396&origName=xlsxExample.js&filename=ubs_report1847324396code&_dc=1523880088442
20180416 12012831  " auth  	admin/152268950
20180416 12012831  " call  	endpoint getDocument
20180416 12012831  ) http  	127.0.0.1 <- 200
20180416 12012831  )  -    00.004.028
20180416 12012833  " http  	127.0.0.1 <- 200
20180416 12012833  "  -    00.022.113
20180416 12012926  #  +    ubql
20180416 12012926  # http  	127.0.0.1 -> POST ubql
20180416 12012926  # http  	[{"entity":"ubs_report","method":"select","fieldList":["ID","report_code","name","template","code","model"],"version":"-1"}]
20180416 12012926  # auth  	admin/152268950
20180416 12012926  # call  	endpoint ubql
20180416 12012928  # http  	127.0.0.1 <- 200
20180416 12012928  #  -    00.020.297
20180416 12012928  $  +    getDocument?entity=ubs_report&attribute=template&ID=1847324396&origName=xlsxExample.template&dtrPrm=1523880089454
20180416 12012928  $ http  	127.0.0.1 -> GET getDocument?entity=ubs_report&attribute=template&ID=1847324396&origName=xlsxExample.template&dtrPrm=1523880089454
20180416 12012928  $ auth  	admin/152268950
20180416 12012928  $ call  	endpoint getDocument
20180416 12012928  %  +    getDocument?entity=ubs_report&attribute=code&ID=1847324396&origName=xlsxExample.js&dtrPrm=1523880089454
20180416 12012928  % http  	127.0.0.1 -> GET getDocument?entity=ubs_report&attribute=code&ID=1847324396&origName=xlsxExample.js&dtrPrm=1523880089454
20180416 12012928  % auth  	admin/152268950
20180416 12012928  % call  	endpoint getDocument
20180416 12012928  $ http  	127.0.0.1 <- 200
20180416 12012928  $  -    00.002.555
20180416 12012928  % http  	127.0.0.1 <- 200
20180416 12012928  %  -    00.010.940
20180416 12012933  &  +    ubql
20180416 12012933  & http  	127.0.0.1 -> POST ubql
20180416 12012933  & http  	[{"entity":"req_reqList","method":"select","fieldList":["reqDate","applicantInfo","reqText","answer"],"whereList":{"c1":{"expression":"[department]","condition":"equal","values":{"c1":335784175468545}},"c2":{"expression":"[reqDate]","condition":"moreEqual","values":{"c2":"2018-03-31T22:00:00.000Z"}},"c3":{"expression":"[reqDate]","condition":"less","values":{"c3":"2018-04-30T22:00:00.000Z"}}}}]
20180416 12012933  & auth  	admin/152268950
20180416 12012933  & call  	endpoint ubql
20180416 12012933  &  +    	ubMixinClasses.TubDataHistoryMixin(02E94CD0).MixinMethod
20180416 12012933  & debug 		req_reqList.select(TubDataHistoryMixin)
20180416 12012933  &  -    	00.000.023
20180416 12012933  &  +    	ubMixinClasses.TubRLSMixin(02E94E20).MixinMethod
20180416 12012933  & debug 		req_reqList.select(TubRLSMixin)
20180416 12012933  & debug 		Prepare RLS expression for req_reqList
20180416 12012933  &  -    	00.000.412
20180416 12012933  &  +    	ubMixinClasses.TubStorageMixin(02E942C0).MixinMethod
20180416 12012933  & debug 		req_reqList.select(TubStorageMixin)
20180416 12012933  &  +    		ubApp.TubDataStore(06D83108).Init
20180416 12012933  &  +    			ubApp.TubApp(02E43EE0).DBExecute
20180416 12012933  &  +    				ubApp.TubApp(02E43EE0).TubApp.InternalDBExecute
20180416 12012933  &  +    					00856EC2 
20180416 12012934  &  -    					00.017.096
20180416 12012934  & SQL   					ubDBSQLite3ThreadSafe.TubSQLite3Statement(02EFAC90) PRAGMA foreign_keys = ON
20180416 12012934  & debug 					P1: Int64		335784175468545
20180416 12012934  & debug 					P2: DateTime	2018-03-31T22:00:00
20180416 12012934  & debug 					P3: DateTime	2018-04-30T22:00:00
20180416 12012934  & debug 					P4: DateTime	2018-04-16T12:01:29
20180416 12012934  & debug 					P5: Int64		10
20180416 12012934  & SQL   					ubDBSQLite3ThreadSafe.TubSQLite3Statement(02EFA630) SELECT A01.reqDate,A01.applicantInfo,A01.reqText,A01.answer  FROM req_reqList A01  INNER JOIN req_depart A02 ON A02.ID=A01.department  WHERE A01.department=? AND A01.reqDate>=? AND A01.reqDate<? AND (? BETWEEN A01.mi_dateFrom AND A01.mi_dateTo) AND (( A01.mi_owner = ? ) OR A02.roleInSystem in (0,3,1))
20180416 12012934  &  -    				00.017.307
20180416 12012934  &  -    			00.017.656
20180416 12012934  & debug 			Query result for entity "req_reqList" into data name "": row count=2
20180416 12012934  &  -    		00.017.700
20180416 12012934  &  -    	00.018.022
20180416 12012934  &  +    	ubMixinClasses.TubSoftLockMixin(02E950C0).MixinMethod
20180416 12012934  & debug 		req_reqList.select(TubSoftLockMixin)
20180416 12012934  &  -    	00.000.147
20180416 12012934  & http  	127.0.0.1 <- 200
20180416 12012934  &  -    00.019.282
20180416 12012942  '  +    clientRequire/tinymce//skins/lightgray/content.min.css
20180416 12012942  ' http  	127.0.0.1 -> GET clientRequire/tinymce//skins/lightgray/content.min.css
20180416 12012942  ' call  	endpoint clientRequire
20180416 12012942  ' info  	Call clientRequire 
20180416 12012942  ' http  	127.0.0.1 <- 200
20180416 12012942  '  -    00.001.136
20180416 12012944  )  +    models/adminui-pub/css/print-portrait.css
20180416 12012944  ) http  	127.0.0.1 -> GET models/adminui-pub/css/print-portrait.css
20180416 12012944  ) call  	endpoint models
20180416 12012944  ) http  	127.0.0.1 <- 200
20180416 12012944  )  -    00.000.914
20180416 12012944  (  +    models/adminui-pub/css/print-report.css
20180416 12012944  ( http  	127.0.0.1 -> GET models/adminui-pub/css/print-report.css
20180416 12012944  ( call  	endpoint models
20180416 12012944  ( http  	127.0.0.1 <- 200
20180416 12012944  (  -    00.001.487
20180416 12020635  "  +    setDocument?ID=1847324396&attribute=template&entity=ubs_report&filename=xlsxExample.template
20180416 12020635  #  +    setDocument?ID=1847324396&attribute=code&entity=ubs_report&filename=xlsxExample.js
20180416 12020635  " http  	127.0.0.1 -> POST setDocument?ID=1847324396&attribute=template&entity=ubs_report&filename=xlsxExample.template
20180416 12020635  # http  	127.0.0.1 -> POST setDocument?ID=1847324396&attribute=code&entity=ubs_report&filename=xlsxExample.js
20180416 12020635  " http  	!BIN(4622)
20180416 12020635  # http  	!BIN(2624)
20180416 12020635  # auth  	admin/152268950
20180416 12020635  # call  	endpoint setDocument
20180416 12020635  " auth  	admin/152268950
20180416 12020635  " call  	endpoint setDocument
20180416 12020635  " http  	127.0.0.1 <- 200
20180416 12020635  "  -    00.010.917
20180416 12020635  # http  	127.0.0.1 <- 200
20180416 12020635  #  -    00.011.329
20180416 12020636  $  +    ubql
20180416 12020636  $ http  	127.0.0.1 -> POST ubql
20180416 12020636  $ http  	[{"fieldList":["model","report_code","name","template","code","ID","mi_modifyDate"],"entity":"ubs_report","method":"update","alsNeed":false,"execParams":{"template":"{\"store\":\"mdb\",\"fName\":\"xlsxExample.template\",\"origName\":\"xlsxExample.template\",\"relPath\":\"\",\"ct\":\"application/template\",\"size\":4622,\"md5\":\"52deb7352ea80d80c140b54f9426d571\",\"revision\":1,\"isDirty\":true}","code":"{\"store\":\"mdb\",\"fName\":\"xlsxExample.js\",\"origName\":\"xlsxExample.js\",\"relPath\":\"\",\"ct\":\"application/javascript\",\"size\":2624,\"md5\":\"b8c0c0df7ddaeae177a6c493996bc5b6\",\"revision\":1,\"isDirty\":true}","ID":1847324396,"mi_modifyDate":"2018-04-16T14:01:28.000Z"}}]
20180416 12020636  $ auth  	admin/152268950
20180416 12020636  $ call  	endpoint ubql
20180416 12020636  $  +    	ubMixinClasses.TubStorageMixin(02E942C0).MixinMethod
20180416 12020636  $ debug 		ubs_report.beforeupdate(TubStorageMixin)
20180416 12020636  $ EXC   		EMetabaseException {"errorCode":25,"Message":"Record modified by another user"} at 0094C650 
20180416 12020636  $  -    	00.001.569
20180416 12020636  $ ERROR 	POST ubql ERROR=500 (Record modified by another user)
20180416 12020636  $  -    00.002.459
20180416 12020907  %  +    setDocument?ID=1322283145&attribute=template&entity=ubs_report&filename=Reqlist_HD_month.template
20180416 12020907  % http  	127.0.0.1 -> POST setDocument?ID=1322283145&attribute=template&entity=ubs_report&filename=Reqlist_HD_month.template
20180416 12020907  % http  	!BIN(975)
20180416 12020907  % auth  	admin/152268950
20180416 12020907  % call  	endpoint setDocument
20180416 12020907  % http  	127.0.0.1 <- 200
20180416 12020907  %  -    00.010.231
20180416 12020907  &  +    ubql
20180416 12020907  & http  	127.0.0.1 -> POST ubql
20180416 12020907  & http  	[{"fieldList":["model","report_code","name","template","code","ID","mi_modifyDate"],"entity":"ubs_report","method":"update","alsNeed":false,"execParams":{"template":"{\"store\":\"mdb\",\"fName\":\"Reqlist_HD_month.template\",\"origName\":\"Reqlist_HD_month.template\",\"relPath\":\"\",\"ct\":\"application/template\",\"size\":975,\"md5\":\"81e877eb9d6cebffe3e5c320af5bfecb\",\"revision\":1,\"isDirty\":true}","ID":1322283145,"mi_modifyDate":"2018-04-16T13:35:53.000Z"}}]
20180416 12020907  & auth  	admin/152268950
20180416 12020907  & call  	endpoint ubql
20180416 12020908  &  +    	ubMixinClasses.TubStorageMixin(02E942C0).MixinMethod
20180416 12020908  & debug 		ubs_report.beforeupdate(TubStorageMixin)
20180416 12020908  &  -    	00.000.884
20180416 12020909  &  +    	ubMixinClasses.TubStorageMixin(02E942C0).MixinMethod
20180416 12020909  & debug 		ubs_report.afterupdate(TubStorageMixin)
20180416 12020910  &  -    	00.011.322
20180416 12020910  &  +    	ubMixinClasses.TubAuditMixin(02E94F70).MixinMethod
20180416 12020910  & debug 		ubs_report.afterupdate(TubAuditMixin)
20180416 12020910  &  +    		ubApp.TubDataStore(06D83130).TubDataStore.ExecuteInsertFromSQL
20180416 12020910  &  +    			ubApp.TubApp(02E43EE0).DBExecute
20180416 12020910  &  +    				ubApp.TubApp(02E43EE0).TubApp.InternalDBExecute
20180416 12020910  & debug 					P1: Int64		335794144870401
20180416 12020910  & debug 					P2: String(10)	ubs_report
20180416 12020910  & debug 					P3: Int64		1322283145
20180416 12020910  & debug 					P4: String(6)	UPDATE
20180416 12020910  & debug 					P5: Int64		10
20180416 12020910  & debug 					P6: DateTime	2018-04-16T12:02:09
20180416 12020910  & debug 					P7: String(9)	127.0.0.1
20180416 12020910  & debug 					P8: Int64		1322283145
20180416 12020910  & debug 					P9: String(1)	]
20180416 12020910  & debug 					P10: String(311..)	{"template":"{\"store\":\"mdb\",\"fName\":\"Reqlist_HD_month.template\",\"origName\":\"Reqlist_HD_mo...
20180416 12020910  & DB    					StartTransaction for connection "main"
20180416 12020910  & SQL   					ubDBSQLite3ThreadSafe.TubSQLite3Statement(02EFACF0) INSERT INTO uba_auditTrail (ID,entity,entityinfo_id,actionType,actionUser,actionTime,remoteIP,parentEntityInfo_id,fromValue,toValue) VALUES (?,?,?,?,?,?,?,?,?,?)
20180416 12020910  &  -    				00.000.247
20180416 12020910  &  -    			00.000.250
20180416 12020910  &  -    		00.000.407
20180416 12020910  &  -    	00.000.463
20180416 12020910  & DB    	Commit connection "main" in 119us
20180416 12020910  & http  	127.0.0.1 <- 200
20180416 12020910  &  -    00.039.017
20180416 12020913  '  +    getDocument?entity=ubs_report&attribute=template&ID=1322283145&origName=Reqlist_HD_month.template&filename=ubs_report1322283145template&_dc=1523880129174
20180416 12020913  ' http  	127.0.0.1 -> GET getDocument?entity=ubs_report&attribute=template&ID=1322283145&origName=Reqlist_HD_month.template&filename=ubs_report1322283145template&_dc=1523880129174
20180416 12020913  ' auth  	admin/152268950
20180416 12020913  ' call  	endpoint getDocument
20180416 12020913  )  +    getDocument?entity=ubs_report&attribute=code&ID=1322283145&origName=Reqlist_HD_month.js&filename=ubs_report1322283145code&_dc=1523880129177
20180416 12020913  ) http  	127.0.0.1 -> GET getDocument?entity=ubs_report&attribute=code&ID=1322283145&origName=Reqlist_HD_month.js&filename=ubs_report1322283145code&_dc=1523880129177
20180416 12020913  ) auth  	admin/152268950
20180416 12020913  ) call  	endpoint getDocument
20180416 12020913  ' http  	127.0.0.1 <- 200
20180416 12020913  '  -    00.003.492
20180416 12020913  ) http  	127.0.0.1 <- 200
20180416 12020913  )  -    00.002.512
20180416 12021406  (  +    ubql
20180416 12021406  ( http  	127.0.0.1 -> POST ubql
20180416 12021406  ( http  	[{"fieldList":["model","report_code","name","template","code","ID","mi_modifyDate"],"entity":"ubs_report","method":"update","alsNeed":false,"execParams":{"template":"{\"store\":\"mdb\",\"fName\":\"xlsxExample.template\",\"origName\":\"xlsxExample.template\",\"relPath\":\"\",\"ct\":\"application/template\",\"size\":4622,\"md5\":\"52deb7352ea80d80c140b54f9426d571\",\"revision\":1,\"isDirty\":true}","code":"{\"store\":\"mdb\",\"fName\":\"xlsxExample.js\",\"origName\":\"xlsxExample.js\",\"relPath\":\"\",\"ct\":\"application/javascript\",\"size\":2624,\"md5\":\"b8c0c0df7ddaeae177a6c493996bc5b6\",\"revision\":1,\"isDirty\":true}","ID":1847324396,"mi_modifyDate":"2018-04-16T14:01:28.000Z"}}]
20180416 12021406  ( auth  	admin/152268950
20180416 12021406  ( call  	endpoint ubql
20180416 12021406  (  +    	ubMixinClasses.TubStorageMixin(02E942C0).MixinMethod
20180416 12021406  ( debug 		ubs_report.beforeupdate(TubStorageMixin)
20180416 12021406  (  -    	00.000.764
20180416 12021407  (  +    	ubMixinClasses.TubStorageMixin(02E942C0).MixinMethod
20180416 12021407  ( debug 		ubs_report.afterupdate(TubStorageMixin)
20180416 12021409  (  -    	00.030.881
20180416 12021409  (  +    	ubMixinClasses.TubAuditMixin(02E94F70).MixinMethod
20180416 12021409  ( debug 		ubs_report.afterupdate(TubAuditMixin)
20180416 12021409  (  +    		ubApp.TubDataStore(06D83130).TubDataStore.ExecuteInsertFromSQL
20180416 12021409  (  +    			ubApp.TubApp(02E43EE0).DBExecute
20180416 12021409  (  +    				ubApp.TubApp(02E43EE0).TubApp.InternalDBExecute
20180416 12021409  ( debug 					P1: Int64		335794145525761
20180416 12021409  ( debug 					P2: String(10)	ubs_report
20180416 12021409  ( debug 					P3: Int64		1847324396
20180416 12021409  ( debug 					P4: String(6)	UPDATE
20180416 12021409  ( debug 					P5: Int64		10
20180416 12021409  ( debug 					P6: DateTime	2018-04-16T12:02:14
20180416 12021409  ( debug 					P7: String(9)	127.0.0.1
20180416 12021409  ( debug 					P8: Int64		1847324396
20180416 12021409  ( debug 					P9: String(1)	]
20180416 12021409  ( debug 					P10: String(534..)	{"template":"{\"store\":\"mdb\",\"fName\":\"xlsxExample.template\",\"origName\":\"xlsxExample.templa...
20180416 12021409  ( DB    					StartTransaction for connection "main"
20180416 12021409  ( SQL   					ubDBSQLite3ThreadSafe.TubSQLite3Statement(02EFAD50) INSERT INTO uba_auditTrail (ID,entity,entityinfo_id,actionType,actionUser,actionTime,remoteIP,parentEntityInfo_id,fromValue,toValue) VALUES (?,?,?,?,?,?,?,?,?,?)
20180416 12021409  (  -    				00.000.218
20180416 12021409  (  -    			00.000.221
20180416 12021409  (  -    		00.000.342
20180416 12021409  (  -    	00.000.388
20180416 12021409  ( DB    	Commit connection "main" in 86us
20180416 12021409  ( http  	127.0.0.1 <- 200
20180416 12021409  (  -    00.051.097
20180416 12021413  "  +    getDocument?entity=ubs_report&attribute=template&ID=1847324396&origName=xlsxExample.template&filename=ubs_report1847324396template&_dc=1523880134155
20180416 12021413  " http  	127.0.0.1 -> GET getDocument?entity=ubs_report&attribute=template&ID=1847324396&origName=xlsxExample.template&filename=ubs_report1847324396template&_dc=1523880134155
20180416 12021413  " auth  	admin/152268950
20180416 12021413  " call  	endpoint getDocument
20180416 12021413  #  +    getDocument?entity=ubs_report&attribute=code&ID=1847324396&origName=xlsxExample.js&filename=ubs_report1847324396code&_dc=1523880134158
20180416 12021413  # http  	127.0.0.1 -> GET getDocument?entity=ubs_report&attribute=code&ID=1847324396&origName=xlsxExample.js&filename=ubs_report1847324396code&_dc=1523880134158
20180416 12021413  # auth  	admin/152268950
20180416 12021413  # call  	endpoint getDocument
20180416 12021414  " http  	127.0.0.1 <- 200
20180416 12021414  "  -    00.004.094
20180416 12021414  # http  	127.0.0.1 <- 200
20180416 12021414  #  -    00.004.056
20180416 12021613  $  +    ubql
20180416 12021613  $ http  	127.0.0.1 -> POST ubql
20180416 12021613  $ http  	[{"entity":"ubs_report","method":"select","fieldList":["ID","report_code","name","template","code","model"],"version":"-1"}]
20180416 12021613  $ auth  	admin/152268950
20180416 12021613  $ call  	endpoint ubql
20180416 12021613  $ http  	127.0.0.1 <- 200
20180416 12021613  $  -    00.000.869
20180416 12021614  %  +    getDocument?entity=ubs_report&attribute=template&ID=1847324396&origName=xlsxExample.template&dtrPrm=1523880136222
20180416 12021614  % http  	127.0.0.1 -> GET getDocument?entity=ubs_report&attribute=template&ID=1847324396&origName=xlsxExample.template&dtrPrm=1523880136222
20180416 12021614  % auth  	admin/152268950
20180416 12021614  % call  	endpoint getDocument
20180416 12021614  &  +    getDocument?entity=ubs_report&attribute=code&ID=1847324396&origName=xlsxExample.js&dtrPrm=1523880136222
20180416 12021614  & http  	127.0.0.1 -> GET getDocument?entity=ubs_report&attribute=code&ID=1847324396&origName=xlsxExample.js&dtrPrm=1523880136222
20180416 12021614  & auth  	admin/152268950
20180416 12021614  & call  	endpoint getDocument
20180416 12021614  & http  	127.0.0.1 <- 200
20180416 12021614  &  -    00.009.529
20180416 12021614  % http  	127.0.0.1 <- 200
20180416 12021614  %  -    00.011.584
20180416 12021628  '  +    clientRequire/tinymce//skins/lightgray/content.min.css
20180416 12021628  ' http  	127.0.0.1 -> GET clientRequire/tinymce//skins/lightgray/content.min.css
20180416 12021628  ' call  	endpoint clientRequire
20180416 12021628  ' info  	Call clientRequire 
20180416 12021628  ' http  	127.0.0.1 <- 200
20180416 12021628  '  -    00.000.440
20180416 12021634  )  +    models/adminui-pub/css/print-report.css
20180416 12021634  ) http  	127.0.0.1 -> GET models/adminui-pub/css/print-report.css
20180416 12021634  ) call  	endpoint models
20180416 12021634  ) http  	127.0.0.1 <- 200
20180416 12021634  )  -    00.000.401
20180416 12021634  (  +    models/adminui-pub/css/print-portrait.css
20180416 12021634  ( http  	127.0.0.1 -> GET models/adminui-pub/css/print-portrait.css
20180416 12021634  ( call  	endpoint models
20180416 12021634  ( http  	127.0.0.1 <- 200
20180416 12021634  (  -    00.000.383
20180416 12024445  #  +    setDocument?ID=1847324396&attribute=template&entity=ubs_report&filename=xlsxExample.template
20180416 12024445  # http  	127.0.0.1 -> POST setDocument?ID=1847324396&attribute=template&entity=ubs_report&filename=xlsxExample.template
20180416 12024445  # http  	!BIN(1513)
20180416 12024445  # auth  	admin/152268950
20180416 12024445  # call  	endpoint setDocument
20180416 12024445  "  +    setDocument?ID=1847324396&attribute=code&entity=ubs_report&filename=xlsxExample.js
20180416 12024445  " http  	127.0.0.1 -> POST setDocument?ID=1847324396&attribute=code&entity=ubs_report&filename=xlsxExample.js
20180416 12024445  " http  	!BIN(2272)
20180416 12024445  " auth  	admin/152268950
20180416 12024445  " call  	endpoint setDocument
20180416 12024446  # http  	127.0.0.1 <- 200
20180416 12024446  #  -    00.013.324
20180416 12024446  " http  	127.0.0.1 <- 200
20180416 12024446  "  -    00.013.408
20180416 12024446  $  +    ubql
20180416 12024446  $ http  	127.0.0.1 -> POST ubql
20180416 12024446  $ http  	[{"fieldList":["model","report_code","name","template","code","ID","mi_modifyDate"],"entity":"ubs_report","method":"update","alsNeed":false,"execParams":{"code":"{\"store\":\"mdb\",\"fName\":\"xlsxExample.js\",\"origName\":\"xlsxExample.js\",\"relPath\":\"\",\"ct\":\"application/javascript\",\"size\":2272,\"md5\":\"24a344ef43c50e2bc31b8c53f9863129\",\"revision\":1,\"isDirty\":true}","template":"{\"store\":\"mdb\",\"fName\":\"xlsxExample.template\",\"origName\":\"xlsxExample.template\",\"relPath\":\"\",\"ct\":\"application/template\",\"size\":1513,\"md5\":\"63981e267577aa899466d541666b3e06\",\"revision\":1,\"isDirty\":true}","ID":1847324396,"mi_modifyDate":"2018-04-16T14:02:14.000Z"}}]
20180416 12024446  $ auth  	admin/152268950
20180416 12024446  $ call  	endpoint ubql
20180416 12024446  $  +    	ubMixinClasses.TubStorageMixin(02E942C0).MixinMethod
20180416 12024446  $ debug 		ubs_report.beforeupdate(TubStorageMixin)
20180416 12024446  $ EXC   		EMetabaseException {"errorCode":25,"Message":"Record modified by another user"} at 0094C650 
20180416 12024446  $  -    	00.002.633
20180416 12024446  $ ERROR 	POST ubql ERROR=500 (Record modified by another user)
20180416 12024446  $  -    00.003.564
20180416 12024715  ! info  ubApp.TubApp(02E43EE0) {   "ClientsCurrent": 1,   "ClientsMax": 1,   "Invalid": 5,   "Responses": 46,   "Modified": 0,   "IncomingBytes": 56771,   "OutcomingBytes": 20389,   "OutcomingFiles": 25,   "ServiceCalls": 46,   "ProcessTime": "2.64s"  }
